target datalayout = "e-m:e-p270:32:32-p271:32:32-p272:64:64-i64:64-i128:128-f80:128-n8:16:32:64-S128"
target triple = "x86_64-pc-linux-gnu"

@glad_glGetString = external global ptr, align 8
@glad_glGetIntegerv = external global ptr, align 8
@.str = private unnamed_addr constant [63 x i8] c"-------------------------------------------------------------\0A\00", align 1
@.str.1 = private unnamed_addr constant [19 x i8] c"GL Vendor    : %s\0A\00", align 1
@.str.2 = private unnamed_addr constant [19 x i8] c"GL Renderer  : %s\0A\00", align 1
@.str.3 = private unnamed_addr constant [19 x i8] c"GL Version   : %s\0A\00", align 1
@.str.4 = private unnamed_addr constant [22 x i8] c"GL Version   : %d.%d\0A\00", align 1
@.str.5 = private unnamed_addr constant [19 x i8] c"GLSL Version : %s\0A\00", align 1

; Function Attrs: mustprogress uwtable
define dso_local void @_Z10DumpInfoGLv() #0 {
  %1 = alloca ptr, align 8
  %2 = alloca ptr, align 8
  %3 = alloca ptr, align 8
  %4 = alloca ptr, align 8
  %5 = alloca i32, align 4
  %6 = alloca i32, align 4
  call void @llvm.lifetime.start.p0(i64 8, ptr %1) #5
  %7 = load ptr, ptr @glad_glGetString, align 8, !tbaa !4
  %8 = call ptr %7(i32 noundef 7937)
  store ptr %8, ptr %1, align 8, !tbaa !8
  call void @llvm.lifetime.start.p0(i64 8, ptr %2) #5
  %9 = load ptr, ptr @glad_glGetString, align 8, !tbaa !4
  %10 = call ptr %9(i32 noundef 7936)
  store ptr %10, ptr %2, align 8, !tbaa !8
  call void @llvm.lifetime.start.p0(i64 8, ptr %3) #5
  %11 = load ptr, ptr @glad_glGetString, align 8, !tbaa !4
  %12 = call ptr %11(i32 noundef 7938)
  store ptr %12, ptr %3, align 8, !tbaa !8
  call void @llvm.lifetime.start.p0(i64 8, ptr %4) #5
  %13 = load ptr, ptr @glad_glGetString, align 8, !tbaa !4
  %14 = call ptr %13(i32 noundef 35724)
  store ptr %14, ptr %4, align 8, !tbaa !8
  call void @llvm.lifetime.start.p0(i64 4, ptr %5) #5
  call void @llvm.lifetime.start.p0(i64 4, ptr %6) #5
  %15 = load ptr, ptr @glad_glGetIntegerv, align 8, !tbaa !4
  call void %15(i32 noundef 33307, ptr noundef %5)
  %16 = load ptr, ptr @glad_glGetIntegerv, align 8, !tbaa !4
  call void %16(i32 noundef 33308, ptr noundef %6)
  %17 = call i32 (ptr, ...) @printf(ptr noundef @.str)
  %18 = load ptr, ptr %2, align 8, !tbaa !8
  %19 = call i32 (ptr, ...) @printf(ptr noundef @.str.1, ptr noundef %18)
  %20 = load ptr, ptr %1, align 8, !tbaa !8
  %21 = call i32 (ptr, ...) @printf(ptr noundef @.str.2, ptr noundef %20)
  %22 = load ptr, ptr %3, align 8, !tbaa !8
  %23 = call i32 (ptr, ...) @printf(ptr noundef @.str.3, ptr noundef %22)
  %24 = load i32, ptr %5, align 4, !tbaa !10
  %25 = load i32, ptr %6, align 4, !tbaa !10
  %26 = call i32 (ptr, ...) @printf(ptr noundef @.str.4, i32 noundef %24, i32 noundef %25)
  %27 = load ptr, ptr %4, align 8, !tbaa !8
  %28 = call i32 (ptr, ...) @printf(ptr noundef @.str.5, ptr noundef %27)
  %29 = call i32 (ptr, ...) @printf(ptr noundef @.str)
  call void @llvm.lifetime.end.p0(i64 4, ptr %6) #5
  call void @llvm.lifetime.end.p0(i64 4, ptr %5) #5
  call void @llvm.lifetime.end.p0(i64 8, ptr %4) #5
  call void @llvm.lifetime.end.p0(i64 8, ptr %3) #5
  call void @llvm.lifetime.end.p0(i64 8, ptr %2) #5
  call void @llvm.lifetime.end.p0(i64 8, ptr %1) #5
  ret void
}