; Function Attrs: mustprogress uwtable
define dso_local void @_Z10DumpInfoGLv() local_unnamed_addr #0 {
  %1 = alloca i32, align 4
  %2 = alloca i32, align 4
  %3 = load ptr, ptr @glad_glGetString, align 8, !tbaa !4
  %4 = tail call ptr %3(i32 noundef 7937)
  %5 = load ptr, ptr @glad_glGetString, align 8, !tbaa !4
  %6 = tail call ptr %5(i32 noundef 7936)
  %7 = load ptr, ptr @glad_glGetString, align 8, !tbaa !4
  %8 = tail call ptr %7(i32 noundef 7938)
  %9 = load ptr, ptr @glad_glGetString, align 8, !tbaa !4
  %10 = tail call ptr %9(i32 noundef 35724)
  call void @llvm.lifetime.start.p0(i64 4, ptr nonnull %1) #6
  call void @llvm.lifetime.start.p0(i64 4, ptr nonnull %2) #6
  %11 = load ptr, ptr @glad_glGetIntegerv, align 8, !tbaa !4
  call void %11(i32 noundef 33307, ptr noundef nonnull %1)
  %12 = load ptr, ptr @glad_glGetIntegerv, align 8, !tbaa !4
  call void %12(i32 noundef 33308, ptr noundef nonnull %2)
  %puts = call i32 @puts(ptr nonnull dereferenceable(1) @str.1)
  %13 = call i32 (ptr, ...) @printf(ptr noundef nonnull dereferenceable(1) @.str.1, ptr noundef %6)
  %14 = call i32 (ptr, ...) @printf(ptr noundef nonnull dereferenceable(1) @.str.2, ptr noundef %4)
  %15 = call i32 (ptr, ...) @printf(ptr noundef nonnull dereferenceable(1) @.str.3, ptr noundef %8)
  %16 = load i32, ptr %1, align 4, !tbaa !8
  %17 = load i32, ptr %2, align 4, !tbaa !8
  %18 = call i32 (ptr, ...) @printf(ptr noundef nonnull dereferenceable(1) @.str.4, i32 noundef %16, i32 noundef %17)
  %19 = call i32 (ptr, ...) @printf(ptr noundef nonnull dereferenceable(1) @.str.5, ptr noundef %10)
  %puts4 = call i32 @puts(ptr nonnull dereferenceable(1) @str.1)
  call void @llvm.lifetime.end.p0(i64 4, ptr nonnull %2) #6
  call void @llvm.lifetime.end.p0(i64 4, ptr nonnull %1) #6
  ret void
}